target datalayout = "e-m:e-p270:32:32-p271:32:32-p272:64:64-i64:64-i128:128-f80:128-n8:16:32:64-S128"
target triple = "x86_64-pc-linux-gnu"

@.str.3 = private unnamed_addr constant [2 x i8] c"\0A\00", align 1
@.str.4 = private unnamed_addr constant [38 x i8] c"    write_table [options] [filename]\0A\00", align 1
@.str.5 = private unnamed_addr constant [79 x i8] c"Write the current design as connectivity table. The output is a tab-separated\0A\00", align 1
@.str.6 = private unnamed_addr constant [41 x i8] c"ASCII table with the following columns:\0A\00", align 1
@.str.7 = private unnamed_addr constant [15 x i8] c"  module name\0A\00", align 1
@.str.8 = private unnamed_addr constant [13 x i8] c"  cell name\0A\00", align 1
@.str.9 = private unnamed_addr constant [13 x i8] c"  cell type\0A\00", align 1
@.str.10 = private unnamed_addr constant [13 x i8] c"  cell port\0A\00", align 1
@.str.11 = private unnamed_addr constant [13 x i8] c"  direction\0A\00", align 1
@.str.12 = private unnamed_addr constant [10 x i8] c"  signal\0A\00", align 1
@.str.13 = private unnamed_addr constant [76 x i8] c"module inputs and outputs are output using cell type and port '-' and with\0A\00", align 1
@.str.14 = private unnamed_addr constant [70 x i8] c"'pi' (primary input) or 'po' (primary output) or 'pio' as direction.\0A\00", align 1

; Function Attrs: mustprogress uwtable
define internal void @_ZN12_GLOBAL__N_112TableBackend4helpEv(ptr noundef nonnull align 8 dereferenceable(136) %0) unnamed_addr #4 align 2 {
  %2 = alloca ptr, align 8
  store ptr %0, ptr %2, align 8
  call void (ptr, ...) @_ZN5Yosys3logEPKcz(ptr noundef @.str.3)
  call void (ptr, ...) @_ZN5Yosys3logEPKcz(ptr noundef @.str.4)
  call void (ptr, ...) @_ZN5Yosys3logEPKcz(ptr noundef @.str.3)
  call void (ptr, ...) @_ZN5Yosys3logEPKcz(ptr noundef @.str.5)
  call void (ptr, ...) @_ZN5Yosys3logEPKcz(ptr noundef @.str.6)
  call void (ptr, ...) @_ZN5Yosys3logEPKcz(ptr noundef @.str.3)
  call void (ptr, ...) @_ZN5Yosys3logEPKcz(ptr noundef @.str.7)
  call void (ptr, ...) @_ZN5Yosys3logEPKcz(ptr noundef @.str.8)
  call void (ptr, ...) @_ZN5Yosys3logEPKcz(ptr noundef @.str.9)
  call void (ptr, ...) @_ZN5Yosys3logEPKcz(ptr noundef @.str.10)
  call void (ptr, ...) @_ZN5Yosys3logEPKcz(ptr noundef @.str.11)
  call void (ptr, ...) @_ZN5Yosys3logEPKcz(ptr noundef @.str.12)
  call void (ptr, ...) @_ZN5Yosys3logEPKcz(ptr noundef @.str.3)
  call void (ptr, ...) @_ZN5Yosys3logEPKcz(ptr noundef @.str.13)
  call void (ptr, ...) @_ZN5Yosys3logEPKcz(ptr noundef @.str.14)
  ret void
}